target datalayout = "e-m:e-p270:32:32-p271:32:32-p272:64:64-i64:64-i128:128-f80:128-n8:16:32:64-S128"
target triple = "x86_64-pc-linux-gnu"

; Function Attrs: nounwind uwtable
define internal i32 @utf8_isInvalid4(ptr noundef %0, ptr noundef %1) #0 {
  %3 = alloca ptr, align 8
  %4 = alloca ptr, align 8
  store ptr %0, ptr %3, align 8, !tbaa !45
  store ptr %1, ptr %4, align 8, !tbaa !4
  %5 = load ptr, ptr %4, align 8, !tbaa !4
  %6 = getelementptr inbounds i8, ptr %5, i64 3
  %7 = load i8, ptr %6, align 1, !tbaa !13
  %8 = zext i8 %7 to i32
  %9 = and i32 %8, 128
  %10 = icmp eq i32 %9, 0
  br i1 %10, label %89, label %11

11:                                               ; preds = %2
  %12 = load ptr, ptr %4, align 8, !tbaa !4
  %13 = getelementptr inbounds i8, ptr %12, i64 3
  %14 = load i8, ptr %13, align 1, !tbaa !13
  %15 = zext i8 %14 to i32
  %16 = and i32 %15, 192
  %17 = icmp eq i32 %16, 192
  br i1 %17, label %89, label %18

18:                                               ; preds = %11
  %19 = load ptr, ptr %4, align 8, !tbaa !4
  %20 = getelementptr inbounds i8, ptr %19, i64 2
  %21 = load i8, ptr %20, align 1, !tbaa !13
  %22 = zext i8 %21 to i32
  %23 = and i32 %22, 128
  %24 = icmp eq i32 %23, 0
  br i1 %24, label %89, label %25

25:                                               ; preds = %18
  %26 = load ptr, ptr %4, align 8, !tbaa !4
  %27 = getelementptr inbounds i8, ptr %26, i64 2
  %28 = load i8, ptr %27, align 1, !tbaa !13
  %29 = zext i8 %28 to i32
  %30 = and i32 %29, 192
  %31 = icmp eq i32 %30, 192
  br i1 %31, label %89, label %32

32:                                               ; preds = %25
  %33 = load ptr, ptr %4, align 8, !tbaa !4
  %34 = load i8, ptr %33, align 1, !tbaa !13
  %35 = zext i8 %34 to i32
  %36 = icmp eq i32 %35, 240
  br i1 %36, label %37, label %53

37:                                               ; preds = %32
  %38 = load ptr, ptr %4, align 8, !tbaa !4
  %39 = getelementptr inbounds i8, ptr %38, i64 1
  %40 = load i8, ptr %39, align 1, !tbaa !13
  %41 = zext i8 %40 to i32
  %42 = icmp slt i32 %41, 144
  br i1 %42, label %50, label %43

43:                                               ; preds = %37
  %44 = load ptr, ptr %4, align 8, !tbaa !4
  %45 = getelementptr inbounds i8, ptr %44, i64 1
  %46 = load i8, ptr %45, align 1, !tbaa !13
  %47 = zext i8 %46 to i32
  %48 = and i32 %47, 192
  %49 = icmp eq i32 %48, 192
  br label %50

50:                                               ; preds = %43, %37
  %51 = phi i1 [ true, %37 ], [ %49, %43 ]
  %52 = zext i1 %51 to i32
  br label %86

53:                                               ; preds = %32
  %54 = load ptr, ptr %4, align 8, !tbaa !4
  %55 = getelementptr inbounds i8, ptr %54, i64 1
  %56 = load i8, ptr %55, align 1, !tbaa !13
  %57 = zext i8 %56 to i32
  %58 = and i32 %57, 128
  %59 = icmp eq i32 %58, 0
  br i1 %59, label %83, label %60

60:                                               ; preds = %53
  %61 = load ptr, ptr %4, align 8, !tbaa !4
  %62 = load i8, ptr %61, align 1, !tbaa !13
  %63 = zext i8 %62 to i32
  %64 = icmp eq i32 %63, 244
  br i1 %64, label %65, label %72

65:                                               ; preds = %60
  %66 = load ptr, ptr %4, align 8, !tbaa !4
  %67 = getelementptr inbounds i8, ptr %66, i64 1
  %68 = load i8, ptr %67, align 1, !tbaa !13
  %69 = zext i8 %68 to i32
  %70 = icmp sgt i32 %69, 143
  %71 = zext i1 %70 to i32
  br label %80

72:                                               ; preds = %60
  %73 = load ptr, ptr %4, align 8, !tbaa !4
  %74 = getelementptr inbounds i8, ptr %73, i64 1
  %75 = load i8, ptr %74, align 1, !tbaa !13
  %76 = zext i8 %75 to i32
  %77 = and i32 %76, 192
  %78 = icmp eq i32 %77, 192
  %79 = zext i1 %78 to i32
  br label %80

80:                                               ; preds = %72, %65
  %81 = phi i32 [ %71, %65 ], [ %79, %72 ]
  %82 = icmp ne i32 %81, 0
  br label %83

83:                                               ; preds = %80, %53
  %84 = phi i1 [ true, %53 ], [ %82, %80 ]
  %85 = zext i1 %84 to i32
  br label %86

86:                                               ; preds = %83, %50
  %87 = phi i32 [ %52, %50 ], [ %85, %83 ]
  %88 = icmp ne i32 %87, 0
  br label %89

89:                                               ; preds = %86, %25, %18, %11, %2
  %90 = phi i1 [ true, %25 ], [ true, %18 ], [ true, %11 ], [ true, %2 ], [ %88, %86 ]
  %91 = zext i1 %90 to i32
  ret i32 %91
}