; Function Attrs: mustprogress nofree norecurse nosync nounwind willreturn memory(argmem: read) uwtable
define internal range(i32 0, 2) i32 @utf8_isInvalid4(ptr readnone captures(none) %0, ptr noundef readonly captures(none) %1) #8 {
  %3 = getelementptr inbounds nuw i8, ptr %1, i64 3
  %4 = load i8, ptr %3, align 1, !tbaa !9
  %or.cond = icmp sgt i8 %4, -65
  br i1 %or.cond, label %21, label %5

5:                                                ; preds = %2
  %6 = getelementptr inbounds nuw i8, ptr %1, i64 2
  %7 = load i8, ptr %6, align 1, !tbaa !9
  %or.cond12 = icmp sgt i8 %7, -65
  br i1 %or.cond12, label %21, label %8

8:                                                ; preds = %5
  %9 = load i8, ptr %1, align 1, !tbaa !9
  %10 = icmp eq i8 %9, -16
  %11 = getelementptr inbounds nuw i8, ptr %1, i64 1
  %12 = load i8, ptr %11, align 1, !tbaa !9
  br i1 %10, label %13, label %15

13:                                               ; preds = %8
  %14 = add i8 %12, 64
  %narrow = icmp ult i8 %14, -48
  br label %19

15:                                               ; preds = %8
  %16 = icmp sgt i8 %12, -1
  br i1 %16, label %19, label %17

17:                                               ; preds = %15
  %18 = icmp eq i8 %9, -12
  %.in.v = select i1 %18, i8 -113, i8 -65
  %.in = icmp samesign ugt i8 %12, %.in.v
  br label %19

19:                                               ; preds = %15, %17, %13
  %.shrunk = phi i1 [ %narrow, %13 ], [ true, %15 ], [ %.in, %17 ]
  %20 = zext i1 %.shrunk to i32
  br label %21

21:                                               ; preds = %19, %5, %2
  %22 = phi i32 [ 1, %5 ], [ 1, %2 ], [ %20, %19 ]
  ret i32 %22
}